; ModuleID = '22/350.c'
source_filename = "22/350.c"
target datalayout = "e-m:e-p270:32:32-p271:32:32-p272:64:64-i64:64-f80:128-n8:16:32:64-S128"
target triple = "x86_64-pc-linux-gnu"

@.str = private unnamed_addr constant [3 x i8] c"%c\00", align 1
@.str.1 = private unnamed_addr constant [4 x i8] c"No\0A\00", align 1
@.str.2 = private unnamed_addr constant [3 x i8] c"%d\00", align 1

; Function Attrs: noinline nounwind uwtable
define dso_local i32 @main() #0 {
  %1 = alloca i32, align 4
  %2 = alloca [301 x i32], align 16
  %3 = alloca i8, align 1
  %4 = alloca i32, align 4
  %5 = alloca i32, align 4
  %6 = alloca i32, align 4
  %7 = alloca i32, align 4
  store i32 0, i32* %1, align 4
  store i32 0, i32* %4, align 4
  store i32 0, i32* %6, align 4
  br label %8

8:                                                ; preds = %0, %39
  %9 = call i32 (i8*, ...) @__isoc99_scanf(i8* getelementptr inbounds ([3 x i8], [3 x i8]* @.str, i64 0, i64 0), i8* %3)
  %10 = load i8, i8* %3, align 1
  %11 = sext i8 %10 to i32
  %12 = icmp eq i32 %11, 10
  br i1 %12, label %13, label %20

13:                                               ; preds = %8
  %14 = load i32, i32* %4, align 4
  %15 = load i32, i32* %6, align 4
  %16 = sext i32 %15 to i64
  %17 = getelementptr inbounds [301 x i32], [301 x i32]* %2, i64 0, i64 %16
  store i32 %14, i32* %17, align 4
  %18 = load i32, i32* %6, align 4
  %19 = add nsw i32 %18, 1
  store i32 %19, i32* %6, align 4
  br label %40

20:                                               ; preds = %8
  %21 = load i8, i8* %3, align 1
  %22 = sext i8 %21 to i32
  %23 = icmp eq i32 %22, 44
  br i1 %23, label %24, label %31

24:                                               ; preds = %20
  %25 = load i32, i32* %4, align 4
  %26 = load i32, i32* %6, align 4
  %27 = sext i32 %26 to i64
  %28 = getelementptr inbounds [301 x i32], [301 x i32]* %2, i64 0, i64 %27
  store i32 %25, i32* %28, align 4
  store i32 0, i32* %4, align 4
  %29 = load i32, i32* %6, align 4
  %30 = add nsw i32 %29, 1
  store i32 %30, i32* %6, align 4
  br label %38

31:                                               ; preds = %20
  %32 = load i32, i32* %4, align 4
  %33 = mul nsw i32 %32, 10
  %34 = load i8, i8* %3, align 1
  %35 = sext i8 %34 to i32
  %36 = add nsw i32 %33, %35
  %37 = sub nsw i32 %36, 48
  store i32 %37, i32* %4, align 4
  br label %38

38:                                               ; preds = %31, %24
  br label %39

39:                                               ; preds = %38
  br label %8

40:                                               ; preds = %13
  store i32 0, i32* %7, align 4
  store i32 0, i32* %5, align 4
  br label %41

41:                                               ; preds = %58, %40
  %42 = load i32, i32* %5, align 4
  %43 = load i32, i32* %6, align 4
  %44 = icmp slt i32 %42, %43
  br i1 %44, label %45, label %61

45:                                               ; preds = %41
  %46 = load i32, i32* %5, align 4
  %47 = sext i32 %46 to i64
  %48 = getelementptr inbounds [301 x i32], [301 x i32]* %2, i64 0, i64 %47
  %49 = load i32, i32* %48, align 4
  %50 = load i32, i32* %7, align 4
  %51 = icmp sgt i32 %49, %50
  br i1 %51, label %52, label %57

52:                                               ; preds = %45
  %53 = load i32, i32* %5, align 4
  %54 = sext i32 %53 to i64
  %55 = getelementptr inbounds [301 x i32], [301 x i32]* %2, i64 0, i64 %54
  %56 = load i32, i32* %55, align 4
  store i32 %56, i32* %7, align 4
  br label %57

57:                                               ; preds = %52, %45
  br label %58

58:                                               ; preds = %57
  %59 = load i32, i32* %5, align 4
  %60 = add nsw i32 %59, 1
  store i32 %60, i32* %5, align 4
  br label %41

61:                                               ; preds = %41
  store i32 0, i32* %5, align 4
  br label %62

62:                                               ; preds = %78, %61
  %63 = load i32, i32* %5, align 4
  %64 = load i32, i32* %6, align 4
  %65 = icmp slt i32 %63, %64
  br i1 %65, label %66, label %81

66:                                               ; preds = %62
  %67 = load i32, i32* %5, align 4
  %68 = sext i32 %67 to i64
  %69 = getelementptr inbounds [301 x i32], [301 x i32]* %2, i64 0, i64 %68
  %70 = load i32, i32* %69, align 4
  %71 = load i32, i32* %7, align 4
  %72 = icmp eq i32 %70, %71
  br i1 %72, label %73, label %77

73:                                               ; preds = %66
  %74 = load i32, i32* %5, align 4
  %75 = sext i32 %74 to i64
  %76 = getelementptr inbounds [301 x i32], [301 x i32]* %2, i64 0, i64 %75
  store i32 0, i32* %76, align 4
  br label %77

77:                                               ; preds = %73, %66
  br label %78

78:                                               ; preds = %77
  %79 = load i32, i32* %5, align 4
  %80 = add nsw i32 %79, 1
  store i32 %80, i32* %5, align 4
  br label %62

81:                                               ; preds = %62
  store i32 0, i32* %7, align 4
  store i32 0, i32* %5, align 4
  br label %82

82:                                               ; preds = %99, %81
  %83 = load i32, i32* %5, align 4
  %84 = load i32, i32* %6, align 4
  %85 = icmp slt i32 %83, %84
  br i1 %85, label %86, label %102

86:                                               ; preds = %82
  %87 = load i32, i32* %5, align 4
  %88 = sext i32 %87 to i64
  %89 = getelementptr inbounds [301 x i32], [301 x i32]* %2, i64 0, i64 %88
  %90 = load i32, i32* %89, align 4
  %91 = load i32, i32* %7, align 4
  %92 = icmp sgt i32 %90, %91
  br i1 %92, label %93, label %98

93:                                               ; preds = %86
  %94 = load i32, i32* %5, align 4
  %95 = sext i32 %94 to i64
  %96 = getelementptr inbounds [301 x i32], [301 x i32]* %2, i64 0, i64 %95
  %97 = load i32, i32* %96, align 4
  store i32 %97, i32* %7, align 4
  br label %98

98:                                               ; preds = %93, %86
  br label %99

99:                                               ; preds = %98
  %100 = load i32, i32* %5, align 4
  %101 = add nsw i32 %100, 1
  store i32 %101, i32* %5, align 4
  br label %82

102:                                              ; preds = %82
  %103 = load i32, i32* %7, align 4
  %104 = icmp eq i32 %103, 0
  br i1 %104, label %105, label %107

105:                                              ; preds = %102
  %106 = call i32 (i8*, ...) @printf(i8* getelementptr inbounds ([4 x i8], [4 x i8]* @.str.1, i64 0, i64 0))
  br label %110

107:                                              ; preds = %102
  %108 = load i32, i32* %7, align 4
  %109 = call i32 (i8*, ...) @printf(i8* getelementptr inbounds ([3 x i8], [3 x i8]* @.str.2, i64 0, i64 0), i32 %108)
  br label %110

110:                                              ; preds = %107, %105
  %111 = call i32 @getchar()
  %112 = call i32 @getchar()
  ret i32 0
}

declare dso_local i32 @__isoc99_scanf(i8*, ...) #1

declare dso_local i32 @printf(i8*, ...) #1

declare dso_local i32 @getchar() #1


!llvm.module.flags = !{!0}
!llvm.ident = !{!1}

!0 = !{i32 1, !"wchar_size", i32 4}
!1 = !{!"clang version 10.0.0-4ubuntu1 "}
